target datalayout = "e-m:e-p270:32:32-p271:32:32-p272:64:64-i64:64-i128:128-f80:128-n8:16:32:64-S128"
target triple = "x86_64-pc-linux-gnu"

%struct.HTable = type { i32, ptr }
%struct.CompilationUnit_ = type { ptr, ptr, ptr, ptr, ptr, ptr, ptr, ptr, ptr, ptr, i32, ptr, i8, i8, i8, i8, ptr, ptr, ptr, ptr, ptr, ptr, ptr, ptr, ptr, ptr, ptr, ptr, %struct.HTable, i32, ptr, ptr, %struct.anon.85 }
%struct.anon.85 = type { ptr, ptr }
%struct.File = type { i16, ptr, i64, ptr, ptr, ptr }

@.str = private unnamed_addr constant [5 x i8] c".c3i\00", align 1

; Function Attrs: nounwind uwtable
define dso_local ptr @unit_create(ptr noundef %0) #0 {
  %2 = alloca ptr, align 8
  %3 = alloca ptr, align 8
  store ptr %0, ptr %2, align 8
  %4 = call ptr @calloc_arena(i64 noundef 256)
  store ptr %4, ptr %3, align 8
  %5 = load ptr, ptr %2, align 8
  %6 = load ptr, ptr %3, align 8
  %7 = getelementptr inbounds %struct.CompilationUnit_, ptr %6, i32 0, i32 1
  store ptr %5, ptr %7, align 8
  %8 = load ptr, ptr %2, align 8
  %9 = getelementptr inbounds %struct.File, ptr %8, i32 0, i32 3
  %10 = load ptr, ptr %9, align 8
  %11 = call zeroext i1 @str_has_suffix(ptr noundef %10, ptr noundef @.str)
  %12 = load ptr, ptr %3, align 8
  %13 = getelementptr inbounds %struct.CompilationUnit_, ptr %12, i32 0, i32 13
  %14 = zext i1 %11 to i8
  store i8 %14, ptr %13, align 1
  %15 = load ptr, ptr %3, align 8
  %16 = getelementptr inbounds %struct.CompilationUnit_, ptr %15, i32 0, i32 28
  call void @htable_init(ptr noundef %16, i32 noundef 1024)
  %17 = load ptr, ptr %3, align 8
  ret ptr %17
}