; Function Attrs: nounwind uwtable
define dso_local ptr @unit_create(ptr noundef %0) local_unnamed_addr #0 {
  %2 = tail call ptr @calloc_arena(i64 noundef 256) #6
  %3 = getelementptr inbounds i8, ptr %2, i64 8
  store ptr %0, ptr %3, align 8
  %4 = getelementptr inbounds i8, ptr %0, i64 24
  %5 = load ptr, ptr %4, align 8
  %6 = tail call zeroext i1 @str_has_suffix(ptr noundef %5, ptr noundef nonnull @.str) #6
  %7 = getelementptr inbounds i8, ptr %2, i64 97
  %8 = zext i1 %6 to i8
  store i8 %8, ptr %7, align 1
  %9 = getelementptr inbounds i8, ptr %2, i64 200
  tail call void @htable_init(ptr noundef nonnull %9, i32 noundef 1024) #6
  ret ptr %2
}